target datalayout = "e-m:e-p270:32:32-p271:32:32-p272:64:64-i64:64-i128:128-f80:128-n8:16:32:64-S128"
target triple = "x86_64-pc-linux-gnu"

; Function Attrs: alwaysinline nounwind willreturn memory(none) uwtable
define internal i32 @av_clip_uintp2_c(i32 noundef %0, i32 noundef %1) #3 {
  %3 = alloca i32, align 4
  %4 = alloca i32, align 4
  %5 = alloca i32, align 4
  store i32 %0, ptr %4, align 4, !tbaa !9
  store i32 %1, ptr %5, align 4, !tbaa !9
  %6 = load i32, ptr %4, align 4, !tbaa !9
  %7 = load i32, ptr %5, align 4, !tbaa !9
  %8 = shl i32 1, %7
  %9 = sub i32 %8, 1
  %10 = xor i32 %9, -1
  %11 = and i32 %6, %10
  %12 = icmp ne i32 %11, 0
  br i1 %12, label %13, label %21

13:                                               ; preds = %2
  %14 = load i32, ptr %4, align 4, !tbaa !9
  %15 = xor i32 %14, -1
  %16 = ashr i32 %15, 31
  %17 = load i32, ptr %5, align 4, !tbaa !9
  %18 = shl i32 1, %17
  %19 = sub i32 %18, 1
  %20 = and i32 %16, %19
  store i32 %20, ptr %3, align 4
  br label %23

21:                                               ; preds = %2
  %22 = load i32, ptr %4, align 4, !tbaa !9
  store i32 %22, ptr %3, align 4
  br label %23

23:                                               ; preds = %21, %13
  %24 = load i32, ptr %3, align 4
  ret i32 %24
}

; Function Attrs: alwaysinline nounwind willreturn memory(none) uwtable
define internal i32 @av_clip_c(i32 noundef %0, i32 noundef %1, i32 noundef %2) #3 {
  %4 = alloca i32, align 4
  %5 = alloca i32, align 4
  %6 = alloca i32, align 4
  %7 = alloca i32, align 4
  store i32 %0, ptr %5, align 4, !tbaa !9
  store i32 %1, ptr %6, align 4, !tbaa !9
  store i32 %2, ptr %7, align 4, !tbaa !9
  %8 = load i32, ptr %5, align 4, !tbaa !9
  %9 = load i32, ptr %6, align 4, !tbaa !9
  %10 = icmp slt i32 %8, %9
  br i1 %10, label %11, label %13

11:                                               ; preds = %3
  %12 = load i32, ptr %6, align 4, !tbaa !9
  store i32 %12, ptr %4, align 4
  br label %21

13:                                               ; preds = %3
  %14 = load i32, ptr %5, align 4, !tbaa !9
  %15 = load i32, ptr %7, align 4, !tbaa !9
  %16 = icmp sgt i32 %14, %15
  br i1 %16, label %17, label %19

17:                                               ; preds = %13
  %18 = load i32, ptr %7, align 4, !tbaa !9
  store i32 %18, ptr %4, align 4
  br label %21

19:                                               ; preds = %13
  %20 = load i32, ptr %5, align 4, !tbaa !9
  store i32 %20, ptr %4, align 4
  br label %21

21:                                               ; preds = %19, %17, %11
  %22 = load i32, ptr %4, align 4
  ret i32 %22
}

; Function Attrs: nounwind uwtable
define internal void @alf_filter_cc_12(ptr noundef %0, i64 noundef %1, ptr noundef %2, i64 noundef %3, i32 noundef %4, i32 noundef %5, i32 noundef %6, i32 noundef %7, ptr noundef %8, i32 noundef %9) #0 {
  %11 = alloca ptr, align 8
  %12 = alloca i64, align 8
  %13 = alloca ptr, align 8
  %14 = alloca i64, align 8
  %15 = alloca i32, align 4
  %16 = alloca i32, align 4
  %17 = alloca i32, align 4
  %18 = alloca i32, align 4
  %19 = alloca ptr, align 8
  %20 = alloca i32, align 4
  %21 = alloca i64, align 8
  %22 = alloca i32, align 4
  %23 = alloca i32, align 4
  %24 = alloca i32, align 4
  %25 = alloca i32, align 4
  %26 = alloca ptr, align 8
  %27 = alloca ptr, align 8
  %28 = alloca ptr, align 8
  %29 = alloca ptr, align 8
  %30 = alloca ptr, align 8
  %31 = alloca ptr, align 8
  %32 = alloca i32, align 4
  store ptr %0, ptr %11, align 8, !tbaa !144
  store i64 %1, ptr %12, align 8, !tbaa !146
  store ptr %2, ptr %13, align 8, !tbaa !144
  store i64 %3, ptr %14, align 8, !tbaa !146
  store i32 %4, ptr %15, align 4, !tbaa !9
  store i32 %5, ptr %16, align 4, !tbaa !9
  store i32 %6, ptr %17, align 4, !tbaa !9
  store i32 %7, ptr %18, align 4, !tbaa !9
  store ptr %8, ptr %19, align 8, !tbaa !142
  store i32 %9, ptr %20, align 4, !tbaa !9
  call void @llvm.lifetime.start.p0(i64 8, ptr %21) #8
  %33 = load i64, ptr %14, align 8, !tbaa !146
  %34 = udiv i64 %33, 2
  store i64 %34, ptr %21, align 8, !tbaa !146
  %35 = load i64, ptr %12, align 8, !tbaa !146
  %36 = udiv i64 %35, 2
  store i64 %36, ptr %12, align 8, !tbaa !146
  call void @llvm.lifetime.start.p0(i64 4, ptr %22) #8
  store i32 0, ptr %22, align 4, !tbaa !9
  br label %37

37:                                               ; preds = %245, %10
  %38 = load i32, ptr %22, align 4, !tbaa !9
  %39 = load i32, ptr %16, align 4, !tbaa !9
  %40 = icmp slt i32 %38, %39
  br i1 %40, label %42, label %41

41:                                               ; preds = %37
  store i32 2, ptr %23, align 4
  call void @llvm.lifetime.end.p0(i64 4, ptr %22) #8
  br label %248

42:                                               ; preds = %37
  call void @llvm.lifetime.start.p0(i64 4, ptr %24) #8
  store i32 0, ptr %24, align 4, !tbaa !9
  br label %43

43:                                               ; preds = %241, %42
  %44 = load i32, ptr %24, align 4, !tbaa !9
  %45 = load i32, ptr %15, align 4, !tbaa !9
  %46 = icmp slt i32 %44, %45
  br i1 %46, label %48, label %47

47:                                               ; preds = %43
  store i32 5, ptr %23, align 4
  call void @llvm.lifetime.end.p0(i64 4, ptr %24) #8
  br label %244

48:                                               ; preds = %43
  call void @llvm.lifetime.start.p0(i64 4, ptr %25) #8
  store i32 0, ptr %25, align 4, !tbaa !9
  call void @llvm.lifetime.start.p0(i64 8, ptr %26) #8
  %49 = load ptr, ptr %11, align 8, !tbaa !144
  %50 = load i32, ptr %22, align 4, !tbaa !9
  %51 = sext i32 %50 to i64
  %52 = load i64, ptr %12, align 8, !tbaa !146
  %53 = mul nsw i64 %51, %52
  %54 = getelementptr inbounds i16, ptr %49, i64 %53
  %55 = load i32, ptr %24, align 4, !tbaa !9
  %56 = sext i32 %55 to i64
  %57 = getelementptr inbounds i16, ptr %54, i64 %56
  store ptr %57, ptr %26, align 8, !tbaa !142
  call void @llvm.lifetime.start.p0(i64 8, ptr %27) #8
  %58 = load ptr, ptr %13, align 8, !tbaa !144
  %59 = load i32, ptr %22, align 4, !tbaa !9
  %60 = load i32, ptr %18, align 4, !tbaa !9
  %61 = shl i32 %59, %60
  %62 = sext i32 %61 to i64
  %63 = load i64, ptr %21, align 8, !tbaa !146
  %64 = mul nsw i64 %62, %63
  %65 = getelementptr inbounds i16, ptr %58, i64 %64
  %66 = load i32, ptr %24, align 4, !tbaa !9
  %67 = load i32, ptr %17, align 4, !tbaa !9
  %68 = shl i32 %66, %67
  %69 = sext i32 %68 to i64
  %70 = getelementptr inbounds i16, ptr %65, i64 %69
  store ptr %70, ptr %27, align 8, !tbaa !142
  call void @llvm.lifetime.start.p0(i64 8, ptr %28) #8
  %71 = load ptr, ptr %27, align 8, !tbaa !142
  %72 = load i64, ptr %21, align 8, !tbaa !146
  %73 = sub i64 0, %72
  %74 = getelementptr inbounds i16, ptr %71, i64 %73
  store ptr %74, ptr %28, align 8, !tbaa !142
  call void @llvm.lifetime.start.p0(i64 8, ptr %29) #8
  %75 = load ptr, ptr %27, align 8, !tbaa !142
  store ptr %75, ptr %29, align 8, !tbaa !142
  call void @llvm.lifetime.start.p0(i64 8, ptr %30) #8
  %76 = load ptr, ptr %27, align 8, !tbaa !142
  %77 = load i64, ptr %21, align 8, !tbaa !146
  %78 = getelementptr inbounds i16, ptr %76, i64 %77
  store ptr %78, ptr %30, align 8, !tbaa !142
  call void @llvm.lifetime.start.p0(i64 8, ptr %31) #8
  %79 = load ptr, ptr %27, align 8, !tbaa !142
  %80 = load i64, ptr %21, align 8, !tbaa !146
  %81 = mul nsw i64 2, %80
  %82 = getelementptr inbounds i16, ptr %79, i64 %81
  store ptr %82, ptr %31, align 8, !tbaa !142
  call void @llvm.lifetime.start.p0(i64 4, ptr %32) #8
  %83 = load i32, ptr %22, align 4, !tbaa !9
  %84 = load i32, ptr %18, align 4, !tbaa !9
  %85 = shl i32 %83, %84
  store i32 %85, ptr %32, align 4, !tbaa !9
  %86 = load i32, ptr %18, align 4, !tbaa !9
  %87 = icmp ne i32 %86, 0
  br i1 %87, label %98, label %88

88:                                               ; preds = %48
  %89 = load i32, ptr %32, align 4, !tbaa !9
  %90 = load i32, ptr %20, align 4, !tbaa !9
  %91 = icmp eq i32 %89, %90
  br i1 %91, label %97, label %92

92:                                               ; preds = %88
  %93 = load i32, ptr %32, align 4, !tbaa !9
  %94 = load i32, ptr %20, align 4, !tbaa !9
  %95 = add nsw i32 %94, 1
  %96 = icmp eq i32 %93, %95
  br i1 %96, label %97, label %98

97:                                               ; preds = %92, %88
  store i32 7, ptr %23, align 4
  br label %238

98:                                               ; preds = %92, %48
  %99 = load i32, ptr %32, align 4, !tbaa !9
  %100 = load i32, ptr %20, align 4, !tbaa !9
  %101 = sub nsw i32 %100, 2
  %102 = icmp eq i32 %99, %101
  br i1 %102, label %108, label %103

103:                                              ; preds = %98
  %104 = load i32, ptr %32, align 4, !tbaa !9
  %105 = load i32, ptr %20, align 4, !tbaa !9
  %106 = add nsw i32 %105, 1
  %107 = icmp eq i32 %104, %106
  br i1 %107, label %108, label %110

108:                                              ; preds = %103, %98
  %109 = load ptr, ptr %30, align 8, !tbaa !142
  store ptr %109, ptr %31, align 8, !tbaa !142
  br label %122

110:                                              ; preds = %103
  %111 = load i32, ptr %32, align 4, !tbaa !9
  %112 = load i32, ptr %20, align 4, !tbaa !9
  %113 = sub nsw i32 %112, 1
  %114 = icmp eq i32 %111, %113
  br i1 %114, label %119, label %115

115:                                              ; preds = %110
  %116 = load i32, ptr %32, align 4, !tbaa !9
  %117 = load i32, ptr %20, align 4, !tbaa !9
  %118 = icmp eq i32 %116, %117
  br i1 %118, label %119, label %121

119:                                              ; preds = %115, %110
  %120 = load ptr, ptr %29, align 8, !tbaa !142
  store ptr %120, ptr %28, align 8, !tbaa !142
  store ptr %120, ptr %30, align 8, !tbaa !142
  store ptr %120, ptr %31, align 8, !tbaa !142
  br label %121

121:                                              ; preds = %119, %115
  br label %122

122:                                              ; preds = %121, %108
  %123 = load ptr, ptr %19, align 8, !tbaa !142
  %124 = getelementptr inbounds i16, ptr %123, i64 0
  %125 = load i16, ptr %124, align 2, !tbaa !148
  %126 = sext i16 %125 to i32
  %127 = load ptr, ptr %28, align 8, !tbaa !142
  %128 = load i16, ptr %127, align 2, !tbaa !148
  %129 = zext i16 %128 to i32
  %130 = load ptr, ptr %27, align 8, !tbaa !142
  %131 = load i16, ptr %130, align 2, !tbaa !148
  %132 = zext i16 %131 to i32
  %133 = sub nsw i32 %129, %132
  %134 = mul nsw i32 %126, %133
  %135 = load i32, ptr %25, align 4, !tbaa !9
  %136 = add nsw i32 %135, %134
  store i32 %136, ptr %25, align 4, !tbaa !9
  %137 = load ptr, ptr %19, align 8, !tbaa !142
  %138 = getelementptr inbounds i16, ptr %137, i64 1
  %139 = load i16, ptr %138, align 2, !tbaa !148
  %140 = sext i16 %139 to i32
  %141 = load ptr, ptr %29, align 8, !tbaa !142
  %142 = getelementptr inbounds i16, ptr %141, i64 -1
  %143 = load i16, ptr %142, align 2, !tbaa !148
  %144 = zext i16 %143 to i32
  %145 = load ptr, ptr %27, align 8, !tbaa !142
  %146 = load i16, ptr %145, align 2, !tbaa !148
  %147 = zext i16 %146 to i32
  %148 = sub nsw i32 %144, %147
  %149 = mul nsw i32 %140, %148
  %150 = load i32, ptr %25, align 4, !tbaa !9
  %151 = add nsw i32 %150, %149
  store i32 %151, ptr %25, align 4, !tbaa !9
  %152 = load ptr, ptr %19, align 8, !tbaa !142
  %153 = getelementptr inbounds i16, ptr %152, i64 2
  %154 = load i16, ptr %153, align 2, !tbaa !148
  %155 = sext i16 %154 to i32
  %156 = load ptr, ptr %29, align 8, !tbaa !142
  %157 = getelementptr inbounds i16, ptr %156, i64 1
  %158 = load i16, ptr %157, align 2, !tbaa !148
  %159 = zext i16 %158 to i32
  %160 = load ptr, ptr %27, align 8, !tbaa !142
  %161 = load i16, ptr %160, align 2, !tbaa !148
  %162 = zext i16 %161 to i32
  %163 = sub nsw i32 %159, %162
  %164 = mul nsw i32 %155, %163
  %165 = load i32, ptr %25, align 4, !tbaa !9
  %166 = add nsw i32 %165, %164
  store i32 %166, ptr %25, align 4, !tbaa !9
  %167 = load ptr, ptr %19, align 8, !tbaa !142
  %168 = getelementptr inbounds i16, ptr %167, i64 3
  %169 = load i16, ptr %168, align 2, !tbaa !148
  %170 = sext i16 %169 to i32
  %171 = load ptr, ptr %30, align 8, !tbaa !142
  %172 = getelementptr inbounds i16, ptr %171, i64 -1
  %173 = load i16, ptr %172, align 2, !tbaa !148
  %174 = zext i16 %173 to i32
  %175 = load ptr, ptr %27, align 8, !tbaa !142
  %176 = load i16, ptr %175, align 2, !tbaa !148
  %177 = zext i16 %176 to i32
  %178 = sub nsw i32 %174, %177
  %179 = mul nsw i32 %170, %178
  %180 = load i32, ptr %25, align 4, !tbaa !9
  %181 = add nsw i32 %180, %179
  store i32 %181, ptr %25, align 4, !tbaa !9
  %182 = load ptr, ptr %19, align 8, !tbaa !142
  %183 = getelementptr inbounds i16, ptr %182, i64 4
  %184 = load i16, ptr %183, align 2, !tbaa !148
  %185 = sext i16 %184 to i32
  %186 = load ptr, ptr %30, align 8, !tbaa !142
  %187 = load i16, ptr %186, align 2, !tbaa !148
  %188 = zext i16 %187 to i32
  %189 = load ptr, ptr %27, align 8, !tbaa !142
  %190 = load i16, ptr %189, align 2, !tbaa !148
  %191 = zext i16 %190 to i32
  %192 = sub nsw i32 %188, %191
  %193 = mul nsw i32 %185, %192
  %194 = load i32, ptr %25, align 4, !tbaa !9
  %195 = add nsw i32 %194, %193
  store i32 %195, ptr %25, align 4, !tbaa !9
  %196 = load ptr, ptr %19, align 8, !tbaa !142
  %197 = getelementptr inbounds i16, ptr %196, i64 5
  %198 = load i16, ptr %197, align 2, !tbaa !148
  %199 = sext i16 %198 to i32
  %200 = load ptr, ptr %30, align 8, !tbaa !142
  %201 = getelementptr inbounds i16, ptr %200, i64 1
  %202 = load i16, ptr %201, align 2, !tbaa !148
  %203 = zext i16 %202 to i32
  %204 = load ptr, ptr %27, align 8, !tbaa !142
  %205 = load i16, ptr %204, align 2, !tbaa !148
  %206 = zext i16 %205 to i32
  %207 = sub nsw i32 %203, %206
  %208 = mul nsw i32 %199, %207
  %209 = load i32, ptr %25, align 4, !tbaa !9
  %210 = add nsw i32 %209, %208
  store i32 %210, ptr %25, align 4, !tbaa !9
  %211 = load ptr, ptr %19, align 8, !tbaa !142
  %212 = getelementptr inbounds i16, ptr %211, i64 6
  %213 = load i16, ptr %212, align 2, !tbaa !148
  %214 = sext i16 %213 to i32
  %215 = load ptr, ptr %31, align 8, !tbaa !142
  %216 = load i16, ptr %215, align 2, !tbaa !148
  %217 = zext i16 %216 to i32
  %218 = load ptr, ptr %27, align 8, !tbaa !142
  %219 = load i16, ptr %218, align 2, !tbaa !148
  %220 = zext i16 %219 to i32
  %221 = sub nsw i32 %217, %220
  %222 = mul nsw i32 %214, %221
  %223 = load i32, ptr %25, align 4, !tbaa !9
  %224 = add nsw i32 %223, %222
  store i32 %224, ptr %25, align 4, !tbaa !9
  %225 = load i32, ptr %25, align 4, !tbaa !9
  %226 = add nsw i32 %225, 64
  %227 = ashr i32 %226, 7
  %228 = call i32 @av_clip_c(i32 noundef %227, i32 noundef -2048, i32 noundef 2047) #9
  store i32 %228, ptr %25, align 4, !tbaa !9
  %229 = load ptr, ptr %26, align 8, !tbaa !142
  %230 = load i16, ptr %229, align 2, !tbaa !148
  %231 = zext i16 %230 to i32
  %232 = load i32, ptr %25, align 4, !tbaa !9
  %233 = add nsw i32 %232, %231
  store i32 %233, ptr %25, align 4, !tbaa !9
  %234 = load i32, ptr %25, align 4, !tbaa !9
  %235 = call i32 @av_clip_uintp2_c(i32 noundef %234, i32 noundef 12) #9
  %236 = trunc i32 %235 to i16
  %237 = load ptr, ptr %26, align 8, !tbaa !142
  store i16 %236, ptr %237, align 2, !tbaa !148
  store i32 0, ptr %23, align 4
  br label %238

238:                                              ; preds = %122, %97
  call void @llvm.lifetime.end.p0(i64 4, ptr %32) #8
  call void @llvm.lifetime.end.p0(i64 8, ptr %31) #8
  call void @llvm.lifetime.end.p0(i64 8, ptr %30) #8
  call void @llvm.lifetime.end.p0(i64 8, ptr %29) #8
  call void @llvm.lifetime.end.p0(i64 8, ptr %28) #8
  call void @llvm.lifetime.end.p0(i64 8, ptr %27) #8
  call void @llvm.lifetime.end.p0(i64 8, ptr %26) #8
  call void @llvm.lifetime.end.p0(i64 4, ptr %25) #8
  %239 = load i32, ptr %23, align 4
  switch i32 %239, label %249 [
    i32 0, label %240
    i32 7, label %241
  ]

240:                                              ; preds = %238
  br label %241

241:                                              ; preds = %240, %238
  %242 = load i32, ptr %24, align 4, !tbaa !9
  %243 = add nsw i32 %242, 1
  store i32 %243, ptr %24, align 4, !tbaa !9
  br label %43, !llvm.loop !467

244:                                              ; preds = %47
  br label %245

245:                                              ; preds = %244
  %246 = load i32, ptr %22, align 4, !tbaa !9
  %247 = add nsw i32 %246, 1
  store i32 %247, ptr %22, align 4, !tbaa !9
  br label %37, !llvm.loop !468

248:                                              ; preds = %41
  call void @llvm.lifetime.end.p0(i64 8, ptr %21) #8
  ret void

249:                                              ; preds = %238
  unreachable
}