; Function Attrs: nofree norecurse nosync nounwind memory(argmem: readwrite) uwtable
define internal void @alf_filter_cc_12(ptr noundef captures(none) %0, i64 noundef %1, ptr noundef readonly captures(none) %2, i64 noundef %3, i32 noundef %4, i32 noundef %5, i32 noundef %6, i32 noundef %7, ptr noundef readonly captures(none) %8, i32 noundef %9) #2 {
  %11 = lshr i64 %3, 1
  %12 = lshr i64 %1, 1
  %13 = icmp sgt i32 %5, 0
  br i1 %13, label %.preheader.lr.ph, label %._crit_edge87

.preheader.lr.ph:                                 ; preds = %10
  %14 = icmp sgt i32 %4, 0
  %15 = sub nsw i64 0, %11
  %16 = and i64 %3, -2
  %.not = icmp ne i32 %7, 0
  %17 = add nsw i32 %9, 1
  %18 = add nsw i32 %9, -2
  %19 = add nsw i32 %9, -1
  %20 = getelementptr inbounds nuw i8, ptr %8, i64 2
  %21 = getelementptr inbounds nuw i8, ptr %8, i64 4
  %22 = getelementptr inbounds nuw i8, ptr %8, i64 6
  %23 = getelementptr inbounds nuw i8, ptr %8, i64 8
  %24 = getelementptr inbounds nuw i8, ptr %8, i64 10
  %25 = getelementptr inbounds nuw i8, ptr %8, i64 12
  br i1 %14, label %.preheader.us.preheader, label %._crit_edge87

.preheader.us.preheader:                          ; preds = %.preheader.lr.ph
  %wide.trip.count100 = zext nneg i32 %5 to i64
  %wide.trip.count = zext nneg i32 %4 to i64
  br label %.preheader.us

.preheader.us:                                    ; preds = %.preheader.us.preheader, %._crit_edge.us
  %indvars.iv97 = phi i64 [ 0, %.preheader.us.preheader ], [ %indvars.iv.next98, %._crit_edge.us ]
  %26 = mul nuw nsw i64 %12, %indvars.iv97
  %27 = getelementptr inbounds nuw i16, ptr %0, i64 %26
  %28 = trunc nuw nsw i64 %indvars.iv97 to i32
  %29 = shl i32 %28, %7
  %30 = sext i32 %29 to i64
  %31 = mul nsw i64 %11, %30
  %32 = getelementptr inbounds i16, ptr %2, i64 %31
  %33 = icmp ne i32 %29, %9
  %34 = icmp ne i32 %29, %17
  %or.cond.us.not91 = select i1 %33, i1 %34, i1 false
  %35 = icmp eq i32 %29, %18
  %36 = icmp eq i32 %29, %17
  %or.cond82.us = select i1 %35, i1 true, i1 %36
  %37 = icmp ne i32 %29, %19
  %or.cond83.us.not94 = and i1 %37, %33
  %brmerge = select i1 %.not, i1 true, i1 %or.cond.us.not91
  %brmerge88 = select i1 %or.cond82.us, i1 true, i1 %or.cond83.us.not94
  %.076.us.idx = select i1 %brmerge88, i64 %15, i64 0
  %.mux.idx = select i1 %or.cond83.us.not94, i64 %16, i64 0
  br label %38

38:                                               ; preds = %.preheader.us, %109
  %indvars.iv = phi i64 [ 0, %.preheader.us ], [ %indvars.iv.next, %109 ]
  br i1 %brmerge, label %39, label %109

39:                                               ; preds = %38
  %40 = trunc nuw nsw i64 %indvars.iv to i32
  %41 = shl i32 %40, %6
  %42 = sext i32 %41 to i64
  %43 = getelementptr inbounds i16, ptr %32, i64 %42
  %44 = getelementptr inbounds nuw i16, ptr %43, i64 %11
  %45 = getelementptr inbounds nuw i16, ptr %27, i64 %indvars.iv
  %.076.us = getelementptr inbounds i16, ptr %43, i64 %.076.us.idx
  %.074.us = select i1 %brmerge88, ptr %44, ptr %43
  %.mux = getelementptr inbounds nuw i16, ptr %43, i64 %.mux.idx
  %.0.us = select i1 %or.cond82.us, ptr %44, ptr %.mux
  %46 = load i16, ptr %8, align 2, !tbaa !124
  %47 = sext i16 %46 to i32
  %48 = load i16, ptr %.076.us, align 2, !tbaa !124
  %49 = zext i16 %48 to i32
  %50 = load i16, ptr %43, align 2, !tbaa !124
  %51 = zext i16 %50 to i32
  %52 = sub nsw i32 %49, %51
  %53 = mul nsw i32 %52, %47
  %54 = load i16, ptr %20, align 2, !tbaa !124
  %55 = sext i16 %54 to i32
  %56 = getelementptr inbounds i8, ptr %43, i64 -2
  %57 = load i16, ptr %56, align 2, !tbaa !124
  %58 = zext i16 %57 to i32
  %59 = sub nsw i32 %58, %51
  %60 = mul nsw i32 %59, %55
  %61 = load i16, ptr %21, align 2, !tbaa !124
  %62 = sext i16 %61 to i32
  %63 = getelementptr inbounds nuw i8, ptr %43, i64 2
  %64 = load i16, ptr %63, align 2, !tbaa !124
  %65 = zext i16 %64 to i32
  %66 = sub nsw i32 %65, %51
  %67 = mul nsw i32 %66, %62
  %68 = load i16, ptr %22, align 2, !tbaa !124
  %69 = sext i16 %68 to i32
  %70 = getelementptr inbounds i8, ptr %.074.us, i64 -2
  %71 = load i16, ptr %70, align 2, !tbaa !124
  %72 = zext i16 %71 to i32
  %73 = sub nsw i32 %72, %51
  %74 = mul nsw i32 %73, %69
  %75 = load i16, ptr %23, align 2, !tbaa !124
  %76 = sext i16 %75 to i32
  %77 = load i16, ptr %.074.us, align 2, !tbaa !124
  %78 = zext i16 %77 to i32
  %79 = sub nsw i32 %78, %51
  %80 = mul nsw i32 %79, %76
  %81 = load i16, ptr %24, align 2, !tbaa !124
  %82 = sext i16 %81 to i32
  %83 = getelementptr inbounds nuw i8, ptr %.074.us, i64 2
  %84 = load i16, ptr %83, align 2, !tbaa !124
  %85 = zext i16 %84 to i32
  %86 = sub nsw i32 %85, %51
  %87 = mul nsw i32 %86, %82
  %88 = load i16, ptr %25, align 2, !tbaa !124
  %89 = sext i16 %88 to i32
  %90 = load i16, ptr %.0.us, align 2, !tbaa !124
  %91 = zext i16 %90 to i32
  %92 = sub nsw i32 %91, %51
  %93 = mul nsw i32 %92, %89
  %94 = add nsw i32 %53, 64
  %95 = add i32 %94, %60
  %96 = add i32 %95, %67
  %97 = add i32 %96, %74
  %98 = add i32 %97, %80
  %99 = add i32 %98, %87
  %100 = add i32 %99, %93
  %101 = ashr i32 %100, 7
  %102 = tail call i32 @llvm.smax.i32(i32 %101, i32 -2048)
  %.0.i84.us = tail call i32 @llvm.smin.i32(i32 %102, i32 2047)
  %103 = load i16, ptr %45, align 2, !tbaa !124
  %104 = zext i16 %103 to i32
  %105 = add nsw i32 %.0.i84.us, %104
  %106 = tail call i32 @llvm.smax.i32(i32 %105, i32 0)
  %107 = tail call i32 @llvm.umin.i32(i32 %106, i32 4095)
  %108 = trunc nuw nsw i32 %107 to i16
  store i16 %108, ptr %45, align 2, !tbaa !124
  br label %109

109:                                              ; preds = %38, %39
  %indvars.iv.next = add nuw nsw i64 %indvars.iv, 1
  %exitcond.not = icmp eq i64 %indvars.iv.next, %wide.trip.count
  br i1 %exitcond.not, label %._crit_edge.us, label %38, !llvm.loop !432

._crit_edge.us:                                   ; preds = %109
  %indvars.iv.next98 = add nuw nsw i64 %indvars.iv97, 1
  %exitcond101.not = icmp eq i64 %indvars.iv.next98, %wide.trip.count100
  br i1 %exitcond101.not, label %._crit_edge87, label %.preheader.us, !llvm.loop !433

._crit_edge87:                                    ; preds = %._crit_edge.us, %.preheader.lr.ph, %10
  ret void
}